; Function Attrs: nounwind uwtable
define hidden void @_ZTvn16_n24_N5osgeo4proj9operation17InverseConversionD1Ev(ptr noundef %0) unnamed_addr #4 align 2 personality ptr @__gxx_personality_v0 {
  %2 = getelementptr inbounds i8, ptr %0, i64 -16
  %3 = load ptr, ptr %2, align 8, !tbaa !3
  %4 = getelementptr inbounds i8, ptr %3, i64 -24
  %5 = load i64, ptr %4, align 8
  %6 = getelementptr inbounds i8, ptr %2, i64 %5
  %7 = getelementptr inbounds nuw i8, ptr %6, i64 24
  tail call void @_ZN5osgeo4proj9operation26InverseCoordinateOperationD2Ev(ptr noundef nonnull align 8 dereferenceable(25) %7, ptr noundef nonnull getelementptr inbounds nuw (i8, ptr @_ZTTN5osgeo4proj9operation17InverseConversionE, i64 104)) #32
  store ptr getelementptr inbounds nuw inrange(-24, 72) (i8, ptr @_ZTCN5osgeo4proj9operation17InverseConversionE0_NS1_10ConversionE, i64 24), ptr %6, align 8, !tbaa !3
  %8 = getelementptr inbounds nuw i8, ptr %6, i64 56
  store ptr getelementptr inbounds nuw inrange(-88, 56) (i8, ptr @_ZTCN5osgeo4proj9operation17InverseConversionE0_NS1_10ConversionE, i64 184), ptr %8, align 8, !tbaa !3
  %9 = getelementptr i8, ptr %6, i64 72
  store ptr getelementptr inbounds nuw inrange(-16, 24) (i8, ptr @_ZTCN5osgeo4proj9operation17InverseConversionE0_NS1_10ConversionE, i64 256), ptr %9, align 8, !tbaa !3
  %10 = getelementptr i8, ptr %6, i64 80
  store ptr getelementptr inbounds nuw inrange(-16, 24) (i8, ptr @_ZTCN5osgeo4proj9operation17InverseConversionE0_NS1_10ConversionE, i64 296), ptr %10, align 8, !tbaa !3
  %11 = getelementptr i8, ptr %6, i64 104
  store ptr getelementptr inbounds nuw inrange(-16, 24) (i8, ptr @_ZTCN5osgeo4proj9operation17InverseConversionE0_NS1_10ConversionE, i64 336), ptr %11, align 8, !tbaa !3
  %12 = getelementptr i8, ptr %6, i64 112
  store ptr getelementptr inbounds nuw inrange(-16, 24) (i8, ptr @_ZTCN5osgeo4proj9operation17InverseConversionE0_NS1_10ConversionE, i64 376), ptr %12, align 8, !tbaa !3
  %13 = getelementptr inbounds nuw i8, ptr %6, i64 16
  %14 = load ptr, ptr %13, align 8, !tbaa !11
  %.not.i.i.i.i = icmp eq ptr %14, null
  br i1 %.not.i.i.i.i, label %_ZN5osgeo4proj9operation17InverseConversionD1Ev.exit, label %_ZNKSt14default_deleteIN5osgeo4proj9operation10Conversion7PrivateEEclEPS4_.exit.i.i.i.i

_ZNKSt14default_deleteIN5osgeo4proj9operation10Conversion7PrivateEEclEPS4_.exit.i.i.i.i: ; preds = %1
  tail call void @_ZdlPvm(ptr noundef nonnull %14, i64 noundef 1) #31
  br label %_ZN5osgeo4proj9operation17InverseConversionD1Ev.exit

_ZN5osgeo4proj9operation17InverseConversionD1Ev.exit: ; preds = %1, %_ZNKSt14default_deleteIN5osgeo4proj9operation10Conversion7PrivateEEclEPS4_.exit.i.i.i.i
  store ptr null, ptr %13, align 8, !tbaa !11
  tail call void @_ZN5osgeo4proj9operation15SingleOperationD2Ev(ptr noundef nonnull align 8 dereferenceable(49) %6, ptr noundef nonnull getelementptr inbounds nuw (i8, ptr @_ZTTN5osgeo4proj9operation17InverseConversionE, i64 16)) #32
  tail call void @_ZN5osgeo4proj9operation19CoordinateOperationD2Ev(ptr noundef nonnull align 8 dereferenceable(72) %8) #32
  ret void
}